target datalayout = "e-m:e-p270:32:32-p271:32:32-p272:64:64-i64:64-i128:128-f80:128-n8:16:32:64-S128"
target triple = "x86_64-pc-linux-gnu"

%struct.ossl_cmp_msg_st = type { ptr, ptr, ptr, ptr, ptr, ptr }
%struct.ossl_cmp_pkibody_st = type { i32, %union.anon }
%union.anon = type { ptr }
%struct.ossl_cmp_ctx_st = type { ptr, ptr, ptr, i32, ptr, ptr, ptr, ptr, ptr, i32, ptr, ptr, i32, i32, i32, i32, i64, ptr, ptr, i32, i32, ptr, ptr, ptr, ptr, ptr, i32, i32, i32, ptr, ptr, ptr, ptr, ptr, i64, ptr, i32, i32, ptr, ptr, ptr, ptr, ptr, ptr, ptr, ptr, i32, i32, ptr, ptr, i32, ptr, ptr, i32, ptr, ptr, i32, i32, ptr, ptr, i32, i32, ptr, ptr, i32, ptr, i32, ptr, i32, ptr, ptr, ptr, ptr, ptr, ptr }

@.str = private unnamed_addr constant [32 x i8] c"../openssl/crypto/cmp/cmp_msg.c\00", align 1
@__func__.ossl_cmp_certreq_new = private unnamed_addr constant [21 x i8] c"ossl_cmp_certreq_new\00", align 1

; Function Attrs: nounwind uwtable
define void @OSSL_CMP_MSG_free(ptr noundef %0) #0 {
  %2 = alloca ptr, align 8
  store ptr %0, ptr %2, align 8, !tbaa !10
  %3 = load ptr, ptr %2, align 8, !tbaa !10
  %4 = call ptr @OSSL_CMP_MSG_it()
  call void @ASN1_item_free(ptr noundef %3, ptr noundef %4)
  ret void
}

; Function Attrs: inlinehint nounwind uwtable
define internal ptr @ossl_check_OSSL_CRMF_MSG_type(ptr noundef %0) #4 {
  %2 = alloca ptr, align 8
  store ptr %0, ptr %2, align 8, !tbaa !28
  %3 = load ptr, ptr %2, align 8, !tbaa !28
  ret ptr %3
}

; Function Attrs: inlinehint nounwind uwtable
define internal ptr @ossl_check_OSSL_CRMF_MSG_sk_type(ptr noundef %0) #4 {
  %2 = alloca ptr, align 8
  store ptr %0, ptr %2, align 8, !tbaa !26
  %3 = load ptr, ptr %2, align 8, !tbaa !26
  ret ptr %3
}

; Function Attrs: nounwind uwtable
define ptr @ossl_cmp_certreq_new(ptr noundef %0, i32 noundef %1, ptr noundef %2) #0 {
  %4 = alloca ptr, align 8
  %5 = alloca ptr, align 8
  %6 = alloca i32, align 4
  %7 = alloca ptr, align 8
  %8 = alloca ptr, align 8
  %9 = alloca ptr, align 8
  %10 = alloca i32, align 4
  %11 = alloca ptr, align 8
  store ptr %0, ptr %5, align 8, !tbaa !34
  store i32 %1, ptr %6, align 4, !tbaa !20
  store ptr %2, ptr %7, align 8, !tbaa !28
  call void @llvm.lifetime.start.p0(i64 8, ptr %8) #6
  call void @llvm.lifetime.start.p0(i64 8, ptr %9) #6
  store ptr null, ptr %9, align 8, !tbaa !28
  %12 = load ptr, ptr %5, align 8, !tbaa !34
  %13 = icmp ne ptr %12, null
  %14 = zext i1 %13 to i32
  %15 = icmp ne i32 %14, 0
  %16 = xor i1 %15, true
  %17 = xor i1 %16, true
  %18 = zext i1 %17 to i32
  %19 = sext i32 %18 to i64
  %20 = call i64 @llvm.expect.i64(i64 %19, i64 1)
  %21 = icmp ne i64 %20, 0
  br i1 %21, label %23, label %22

22:                                               ; preds = %3
  store ptr null, ptr %4, align 8
  store i32 1, ptr %10, align 4
  br label %138

23:                                               ; preds = %3
  %24 = load i32, ptr %6, align 4, !tbaa !20
  %25 = icmp ne i32 %24, 0
  br i1 %25, label %26, label %36

26:                                               ; preds = %23
  %27 = load i32, ptr %6, align 4, !tbaa !20
  %28 = icmp ne i32 %27, 2
  br i1 %28, label %29, label %36

29:                                               ; preds = %26
  %30 = load i32, ptr %6, align 4, !tbaa !20
  %31 = icmp ne i32 %30, 7
  br i1 %31, label %32, label %36

32:                                               ; preds = %29
  %33 = load i32, ptr %6, align 4, !tbaa !20
  %34 = icmp ne i32 %33, 4
  br i1 %34, label %35, label %36

35:                                               ; preds = %32
  call void @ERR_new()
  call void @ERR_set_debug(ptr noundef @.str, i32 noundef 398, ptr noundef @__func__.ossl_cmp_certreq_new)
  call void (i32, i32, ptr, ...) @ERR_set_error(i32 noundef 58, i32 noundef 100, ptr noundef null)
  store ptr null, ptr %4, align 8
  store i32 1, ptr %10, align 4
  br label %138

36:                                               ; preds = %32, %29, %26, %23
  %37 = load i32, ptr %6, align 4, !tbaa !20
  %38 = icmp eq i32 %37, 4
  br i1 %38, label %39, label %43

39:                                               ; preds = %36
  %40 = load ptr, ptr %7, align 8, !tbaa !28
  %41 = icmp ne ptr %40, null
  br i1 %41, label %42, label %43

42:                                               ; preds = %39
  call void @ERR_new()
  call void @ERR_set_debug(ptr noundef @.str, i32 noundef 402, ptr noundef @__func__.ossl_cmp_certreq_new)
  call void (i32, i32, ptr, ...) @ERR_set_error(i32 noundef 58, i32 noundef 100, ptr noundef null)
  store ptr null, ptr %4, align 8
  store i32 1, ptr %10, align 4
  br label %138

43:                                               ; preds = %39, %36
  %44 = load ptr, ptr %5, align 8, !tbaa !34
  %45 = load i32, ptr %6, align 4, !tbaa !20
  %46 = call ptr @ossl_cmp_msg_create(ptr noundef %44, i32 noundef %45)
  store ptr %46, ptr %8, align 8, !tbaa !10
  %47 = icmp eq ptr %46, null
  br i1 %47, label %48, label %49

48:                                               ; preds = %43
  br label %135

49:                                               ; preds = %43
  %50 = load ptr, ptr %5, align 8, !tbaa !34
  %51 = getelementptr inbounds nuw %struct.ossl_cmp_ctx_st, ptr %50, i32 0, i32 46
  %52 = load i32, ptr %51, align 8, !tbaa !79
  %53 = icmp ne i32 %52, 0
  br i1 %53, label %54, label %61

54:                                               ; preds = %49
  %55 = load ptr, ptr %8, align 8, !tbaa !10
  %56 = getelementptr inbounds nuw %struct.ossl_cmp_msg_st, ptr %55, i32 0, i32 0
  %57 = load ptr, ptr %56, align 8, !tbaa !19
  %58 = call i32 @ossl_cmp_hdr_set_implicitConfirm(ptr noundef %57)
  %59 = icmp ne i32 %58, 0
  br i1 %59, label %61, label %60

60:                                               ; preds = %54
  br label %135

61:                                               ; preds = %54, %49
  %62 = load i32, ptr %6, align 4, !tbaa !20
  %63 = icmp ne i32 %62, 4
  br i1 %63, label %64, label %127

64:                                               ; preds = %61
  call void @llvm.lifetime.start.p0(i64 8, ptr %11) #6
  %65 = load ptr, ptr %5, align 8, !tbaa !34
  %66 = call ptr @OSSL_CMP_CTX_get0_newPkey(ptr noundef %65, i32 noundef 1)
  store ptr %66, ptr %11, align 8, !tbaa !57
  %67 = load ptr, ptr %5, align 8, !tbaa !34
  %68 = getelementptr inbounds nuw %struct.ossl_cmp_ctx_st, ptr %67, i32 0, i32 61
  %69 = load i32, ptr %68, align 4, !tbaa !80
  %70 = icmp sge i32 %69, 1
  br i1 %70, label %71, label %75

71:                                               ; preds = %64
  %72 = load ptr, ptr %11, align 8, !tbaa !57
  %73 = icmp eq ptr %72, null
  br i1 %73, label %74, label %75

74:                                               ; preds = %71
  call void @ERR_new()
  call void @ERR_set_debug(ptr noundef @.str, i32 noundef 420, ptr noundef @__func__.ossl_cmp_certreq_new)
  call void (i32, i32, ptr, ...) @ERR_set_error(i32 noundef 58, i32 noundef 190, ptr noundef null)
  store i32 2, ptr %10, align 4
  br label %124

75:                                               ; preds = %71, %64
  %76 = load ptr, ptr %7, align 8, !tbaa !28
  %77 = icmp eq ptr %76, null
  br i1 %77, label %78, label %105

78:                                               ; preds = %75
  %79 = load ptr, ptr %5, align 8, !tbaa !34
  %80 = load i32, ptr %6, align 4, !tbaa !20
  %81 = icmp eq i32 %80, 7
  %82 = zext i1 %81 to i32
  %83 = call ptr @OSSL_CMP_CTX_setup_CRM(ptr noundef %79, i32 noundef %82, i32 noundef 0)
  store ptr %83, ptr %9, align 8, !tbaa !28
  %84 = load ptr, ptr %9, align 8, !tbaa !28
  %85 = icmp eq ptr %84, null
  br i1 %85, label %103, label %86

86:                                               ; preds = %78
  %87 = load ptr, ptr %5, align 8, !tbaa !34
  %88 = getelementptr inbounds nuw %struct.ossl_cmp_ctx_st, ptr %87, i32 0, i32 61
  %89 = load i32, ptr %88, align 4, !tbaa !80
  %90 = load ptr, ptr %9, align 8, !tbaa !28
  %91 = load ptr, ptr %11, align 8, !tbaa !57
  %92 = load ptr, ptr %5, align 8, !tbaa !34
  %93 = getelementptr inbounds nuw %struct.ossl_cmp_ctx_st, ptr %92, i32 0, i32 39
  %94 = load ptr, ptr %93, align 8, !tbaa !81
  %95 = load ptr, ptr %5, align 8, !tbaa !34
  %96 = getelementptr inbounds nuw %struct.ossl_cmp_ctx_st, ptr %95, i32 0, i32 0
  %97 = load ptr, ptr %96, align 8, !tbaa !36
  %98 = load ptr, ptr %5, align 8, !tbaa !34
  %99 = getelementptr inbounds nuw %struct.ossl_cmp_ctx_st, ptr %98, i32 0, i32 1
  %100 = load ptr, ptr %99, align 8, !tbaa !51
  %101 = call i32 @OSSL_CRMF_MSG_create_popo(i32 noundef %89, ptr noundef %90, ptr noundef %91, ptr noundef %94, ptr noundef %97, ptr noundef %100)
  %102 = icmp ne i32 %101, 0
  br i1 %102, label %104, label %103

103:                                              ; preds = %86, %78
  store i32 2, ptr %10, align 4
  br label %124

104:                                              ; preds = %86
  br label %111

105:                                              ; preds = %75
  %106 = load ptr, ptr %7, align 8, !tbaa !28
  %107 = call ptr @OSSL_CRMF_MSG_dup(ptr noundef %106)
  store ptr %107, ptr %9, align 8, !tbaa !28
  %108 = icmp eq ptr %107, null
  br i1 %108, label %109, label %110

109:                                              ; preds = %105
  store i32 2, ptr %10, align 4
  br label %124

110:                                              ; preds = %105
  br label %111

111:                                              ; preds = %110, %104
  %112 = load ptr, ptr %8, align 8, !tbaa !10
  %113 = getelementptr inbounds nuw %struct.ossl_cmp_msg_st, ptr %112, i32 0, i32 1
  %114 = load ptr, ptr %113, align 8, !tbaa !22
  %115 = getelementptr inbounds nuw %struct.ossl_cmp_pkibody_st, ptr %114, i32 0, i32 1
  %116 = load ptr, ptr %115, align 8, !tbaa !25
  %117 = call ptr @ossl_check_OSSL_CRMF_MSG_sk_type(ptr noundef %116)
  %118 = load ptr, ptr %9, align 8, !tbaa !28
  %119 = call ptr @ossl_check_OSSL_CRMF_MSG_type(ptr noundef %118)
  %120 = call i32 @OPENSSL_sk_push(ptr noundef %117, ptr noundef %119)
  %121 = icmp ne i32 %120, 0
  br i1 %121, label %123, label %122

122:                                              ; preds = %111
  store i32 2, ptr %10, align 4
  br label %124

123:                                              ; preds = %111
  store ptr null, ptr %9, align 8, !tbaa !28
  store i32 0, ptr %10, align 4
  br label %124

124:                                              ; preds = %122, %109, %103, %74, %123
  call void @llvm.lifetime.end.p0(i64 8, ptr %11) #6
  %125 = load i32, ptr %10, align 4
  switch i32 %125, label %138 [
    i32 0, label %126
    i32 2, label %135
  ]

126:                                              ; preds = %124
  br label %127

127:                                              ; preds = %126, %61
  %128 = load ptr, ptr %5, align 8, !tbaa !34
  %129 = load ptr, ptr %8, align 8, !tbaa !10
  %130 = call i32 @ossl_cmp_msg_protect(ptr noundef %128, ptr noundef %129)
  %131 = icmp ne i32 %130, 0
  br i1 %131, label %133, label %132

132:                                              ; preds = %127
  br label %135

133:                                              ; preds = %127
  %134 = load ptr, ptr %8, align 8, !tbaa !10
  store ptr %134, ptr %4, align 8
  store i32 1, ptr %10, align 4
  br label %138

135:                                              ; preds = %124, %132, %60, %48
  call void @ERR_new()
  call void @ERR_set_debug(ptr noundef @.str, i32 noundef 449, ptr noundef @__func__.ossl_cmp_certreq_new)
  call void (i32, i32, ptr, ...) @ERR_set_error(i32 noundef 58, i32 noundef 163, ptr noundef null)
  %136 = load ptr, ptr %9, align 8, !tbaa !28
  call void @OSSL_CRMF_MSG_free(ptr noundef %136)
  %137 = load ptr, ptr %8, align 8, !tbaa !10
  call void @OSSL_CMP_MSG_free(ptr noundef %137)
  store ptr null, ptr %4, align 8
  store i32 1, ptr %10, align 4
  br label %138

138:                                              ; preds = %135, %133, %124, %42, %35, %22
  call void @llvm.lifetime.end.p0(i64 8, ptr %9) #6
  call void @llvm.lifetime.end.p0(i64 8, ptr %8) #6
  %139 = load ptr, ptr %4, align 8
  ret ptr %139
}