; Function Attrs: nounwind uwtable
define ptr @ossl_cmp_certreq_new(ptr noundef %0, i32 noundef %1, ptr noundef %2) local_unnamed_addr #0 {
  %.not = icmp eq ptr %0, null
  br i1 %.not, label %53, label %4, !prof !18

4:                                                ; preds = %3
  %.not61 = icmp eq i32 %1, 4
  switch i32 %1, label %5 [
    i32 7, label %6
    i32 4, label %6
    i32 2, label %6
    i32 0, label %6
  ]

5:                                                ; preds = %4
  tail call void @ERR_new() #7
  tail call void @ERR_set_debug(ptr noundef nonnull @.str, i32 noundef 398, ptr noundef nonnull @__func__.ossl_cmp_certreq_new) #7
  tail call void (i32, i32, ptr, ...) @ERR_set_error(i32 noundef 58, i32 noundef 100, ptr noundef null) #7
  br label %53

6:                                                ; preds = %4, %4, %4, %4
  %7 = icmp ne ptr %2, null
  %or.cond7 = and i1 %.not61, %7
  br i1 %or.cond7, label %8, label %9

8:                                                ; preds = %6
  tail call void @ERR_new() #7
  tail call void @ERR_set_debug(ptr noundef nonnull @.str, i32 noundef 402, ptr noundef nonnull @__func__.ossl_cmp_certreq_new) #7
  tail call void (i32, i32, ptr, ...) @ERR_set_error(i32 noundef 58, i32 noundef 100, ptr noundef null) #7
  br label %53

9:                                                ; preds = %6
  %10 = tail call ptr @ossl_cmp_msg_create(ptr noundef nonnull %0, i32 noundef %1)
  %11 = icmp eq ptr %10, null
  br i1 %11, label %.thread, label %12

12:                                               ; preds = %9
  %13 = getelementptr inbounds nuw i8, ptr %0, i64 328
  %14 = load i32, ptr %13, align 8, !tbaa !53
  %.not52 = icmp eq i32 %14, 0
  br i1 %.not52, label %18, label %15

15:                                               ; preds = %12
  %16 = load ptr, ptr %10, align 8, !tbaa !15
  %17 = tail call i32 @ossl_cmp_hdr_set_implicitConfirm(ptr noundef %16) #7
  %.not53 = icmp eq i32 %17, 0
  br i1 %.not53, label %.thread, label %18

18:                                               ; preds = %15, %12
  br i1 %.not61, label %50, label %19

19:                                               ; preds = %18
  %20 = tail call ptr @OSSL_CMP_CTX_get0_newPkey(ptr noundef nonnull %0, i32 noundef 1) #7
  %21 = getelementptr inbounds nuw i8, ptr %0, i64 428
  %22 = load i32, ptr %21, align 4, !tbaa !54
  %23 = icmp sgt i32 %22, 0
  %24 = icmp eq ptr %20, null
  %or.cond9 = select i1 %23, i1 %24, i1 false
  br i1 %or.cond9, label %25, label %26

25:                                               ; preds = %19
  tail call void @ERR_new() #7
  tail call void @ERR_set_debug(ptr noundef nonnull @.str, i32 noundef 420, ptr noundef nonnull @__func__.ossl_cmp_certreq_new) #7
  tail call void (i32, i32, ptr, ...) @ERR_set_error(i32 noundef 58, i32 noundef 190, ptr noundef null) #7
  br label %.thread

26:                                               ; preds = %19
  %27 = icmp eq ptr %2, null
  br i1 %27, label %28, label %41

28:                                               ; preds = %26
  %29 = icmp eq i32 %1, 7
  %30 = zext i1 %29 to i32
  %31 = tail call ptr @OSSL_CMP_CTX_setup_CRM(ptr noundef nonnull %0, i32 noundef %30, i32 noundef 0)
  %32 = icmp eq ptr %31, null
  br i1 %32, label %.thread, label %33

33:                                               ; preds = %28
  %34 = load i32, ptr %21, align 4, !tbaa !54
  %35 = getelementptr inbounds nuw i8, ptr %0, i64 272
  %36 = load ptr, ptr %35, align 8, !tbaa !55
  %37 = load ptr, ptr %0, align 8, !tbaa !23
  %38 = getelementptr inbounds nuw i8, ptr %0, i64 8
  %39 = load ptr, ptr %38, align 8, !tbaa !38
  %40 = tail call i32 @OSSL_CRMF_MSG_create_popo(i32 noundef %34, ptr noundef nonnull %31, ptr noundef %20, ptr noundef %36, ptr noundef %37, ptr noundef %39) #7
  %.not54 = icmp eq i32 %40, 0
  br i1 %.not54, label %.thread, label %44

41:                                               ; preds = %26
  %42 = tail call ptr @OSSL_CRMF_MSG_dup(ptr noundef nonnull %2) #7
  %43 = icmp eq ptr %42, null
  br i1 %43, label %.thread, label %44

44:                                               ; preds = %41, %33
  %.3 = phi ptr [ %31, %33 ], [ %42, %41 ]
  %45 = getelementptr inbounds nuw i8, ptr %10, i64 8
  %46 = load ptr, ptr %45, align 8, !tbaa !17
  %47 = getelementptr inbounds nuw i8, ptr %46, i64 8
  %48 = load ptr, ptr %47, align 8, !tbaa !22
  %49 = tail call i32 @OPENSSL_sk_push(ptr noundef %48, ptr noundef nonnull %.3) #7
  %.not55 = icmp eq i32 %49, 0
  br i1 %.not55, label %.thread, label %50

50:                                               ; preds = %44, %18
  %51 = tail call i32 @ossl_cmp_msg_protect(ptr noundef nonnull %0, ptr noundef nonnull %10) #7
  %.not56 = icmp eq i32 %51, 0
  br i1 %.not56, label %.thread, label %53

.thread:                                          ; preds = %44, %41, %28, %33, %25, %50, %15, %9
  %.044 = phi ptr [ null, %9 ], [ null, %50 ], [ null, %15 ], [ null, %41 ], [ null, %28 ], [ %31, %33 ], [ null, %25 ], [ %.3, %44 ]
  tail call void @ERR_new() #7
  tail call void @ERR_set_debug(ptr noundef nonnull @.str, i32 noundef 449, ptr noundef nonnull @__func__.ossl_cmp_certreq_new) #7
  tail call void (i32, i32, ptr, ...) @ERR_set_error(i32 noundef 58, i32 noundef 163, ptr noundef null) #7
  tail call void @OSSL_CRMF_MSG_free(ptr noundef %.044) #7
  %52 = tail call ptr @OSSL_CMP_MSG_it() #7
  tail call void @ASN1_item_free(ptr noundef %10, ptr noundef %52) #7
  br label %53

53:                                               ; preds = %50, %3, %.thread, %8, %5
  %.0 = phi ptr [ null, %5 ], [ null, %8 ], [ null, %.thread ], [ null, %3 ], [ %10, %50 ]
  ret ptr %.0
}